(dp0
S'ROMFS_FILES'
p1
(lp2
(S'font0.bin'
p3
S'libraries/AP_OSD/fonts/font0.bin'
p4
tp5
a(S'bootloader.bin'
p6
S'/home/mathaus/Documents/GitHub/Ardupilot_Grin/Tools/bootloaders/F35Lightning_bl.bin'
p7
tp8
a(S'font3.bin'
p9
S'libraries/AP_OSD/fonts/font3.bin'
p10
tp11
a(S'font1.bin'
p12
S'libraries/AP_OSD/fonts/font1.bin'
p13
tp14
a(S'font4.bin'
p15
S'libraries/AP_OSD/fonts/font4.bin'
p16
tp17
a(S'font2.bin'
p18
S'libraries/AP_OSD/fonts/font2.bin'
p19
tp20
asS'CPU_FLAGS'
p21
(lp22
S'-mcpu=cortex-m4'
p23
aS'-mfpu=fpv4-sp-d16'
p24
aS'-mfloat-abi=hard'
p25
aS'-u_printf_float'
p26
asS'MAIN_STACK'
p27
S'0x400'
p28
sS'APJ_BOARD_TYPE'
p29
S'STM32F405xx'
p30
sS'IOMCU_FW'
p31
I0
sS'USBID'
p32
S'0x0483/0x5740'
p33
sS'BOARD_FLASH_SIZE'
p34
I1024
sS'APJ_BOARD_ID'
p35
S'135'
p36
sS'FLASH_RESERVE_START_KB'
p37
S'64'
p38
sS'CHIBIOS_BUILD_FLAGS'
p39
S'USE_FATFS=no MCU=cortex-m4 ENV_UDEFS=-DCHPRINTF_USE_FLOAT=1 CHIBIOS_PLATFORM_MK=os/hal/ports/STM32/STM32F4xx/platform.mk CHIBIOS_STARTUP_MK=os/common/startup/ARMCMx/compilers/GCC/mk/startup_stm32f4xx.mk'
p40
sS'DISABLE_SCRIPTING'
p41
I01
sS'PERIPH_FW'
p42
I0
sS'PROCESS_STACK'
p43
S'0x2000'
p44
s.